; Function Attrs: nounwind uwtable
define ptr @ossl_d2i_DSA_PUBKEY(ptr noundef captures(address_is_null) %0, ptr noundef captures(none) %1, i64 noundef %2) local_unnamed_addr #0 {
  %4 = alloca ptr, align 8
  %5 = alloca ptr, align 8
  %6 = alloca ptr, align 8
  %7 = alloca ptr, align 8
  call void @llvm.lifetime.start.p0(i64 8, ptr nonnull %5) #9
  call void @llvm.lifetime.start.p0(i64 8, ptr nonnull %6) #9
  call void @llvm.lifetime.start.p0(i64 8, ptr nonnull %7) #9
  %8 = load ptr, ptr %1, align 8, !tbaa !46
  call void @llvm.lifetime.start.p0(i64 8, ptr nonnull %4) #9
  store ptr %8, ptr %4, align 8, !tbaa !46
  %9 = call fastcc ptr @d2i_PUBKEY_int(ptr noundef null, ptr noundef nonnull %4, i64 noundef %2, ptr noundef null, ptr noundef null, i32 noundef 1)
  %10 = icmp eq ptr %9, null
  br i1 %10, label %d2i_DSA_PUBKEY.exit.thread, label %11

11:                                               ; preds = %3
  %12 = tail call ptr @EVP_PKEY_get1_DSA(ptr noundef nonnull %9) #9
  tail call void @EVP_PKEY_free(ptr noundef nonnull %9) #9
  %13 = icmp eq ptr %12, null
  br i1 %13, label %d2i_DSA_PUBKEY.exit.thread, label %14

d2i_DSA_PUBKEY.exit.thread:                       ; preds = %3, %11
  call void @llvm.lifetime.end.p0(i64 8, ptr nonnull %4) #9
  br label %26

14:                                               ; preds = %11
  %15 = load ptr, ptr %4, align 8, !tbaa !46
  call void @llvm.lifetime.end.p0(i64 8, ptr nonnull %4) #9
  call void @DSA_get0_pqg(ptr noundef nonnull %12, ptr noundef nonnull %5, ptr noundef nonnull %6, ptr noundef nonnull %7) #9
  %16 = load ptr, ptr %5, align 8, !tbaa !60
  %17 = icmp eq ptr %16, null
  %18 = load ptr, ptr %6, align 8
  %19 = icmp eq ptr %18, null
  %or.cond = select i1 %17, i1 true, i1 %19
  %20 = load ptr, ptr %7, align 8
  %21 = icmp eq ptr %20, null
  %or.cond3 = select i1 %or.cond, i1 true, i1 %21
  br i1 %or.cond3, label %22, label %23

22:                                               ; preds = %14
  call void @DSA_free(ptr noundef nonnull %12) #9
  br label %26

23:                                               ; preds = %14
  store ptr %15, ptr %1, align 8, !tbaa !46
  %.not = icmp eq ptr %0, null
  br i1 %.not, label %26, label %24

24:                                               ; preds = %23
  %25 = load ptr, ptr %0, align 8, !tbaa !58
  call void @DSA_free(ptr noundef %25) #9
  store ptr %12, ptr %0, align 8, !tbaa !58
  br label %26

26:                                               ; preds = %d2i_DSA_PUBKEY.exit.thread, %23, %24, %22
  %.0 = phi ptr [ null, %22 ], [ %12, %24 ], [ %12, %23 ], [ null, %d2i_DSA_PUBKEY.exit.thread ]
  call void @llvm.lifetime.end.p0(i64 8, ptr nonnull %7) #9
  call void @llvm.lifetime.end.p0(i64 8, ptr nonnull %6) #9
  call void @llvm.lifetime.end.p0(i64 8, ptr nonnull %5) #9
  ret ptr %.0
}